; Function Attrs: mustprogress nounwind uwtable
define hidden void @_ZN2IR18compute_use_countsEv(ptr nocapture noundef nonnull readonly align 8 dereferenceable(32) %0) local_unnamed_addr #0 align 2 {
  %2 = alloca %class.UseCountComputer, align 8
  %3 = getelementptr inbounds i8, ptr %0, i64 24
  %4 = load ptr, ptr %3, align 8
  %5 = load i32, ptr %4, align 4
  %6 = icmp sgt i32 %5, 0
  br i1 %6, label %.lr.ph.preheader, label %._crit_edge

.lr.ph.preheader:                                 ; preds = %1
  %wide.trip.count = zext nneg i32 %5 to i64
  br label %.lr.ph

.lr.ph:                                           ; preds = %.lr.ph.preheader, %.lr.ph
  %indvars.iv = phi i64 [ 0, %.lr.ph.preheader ], [ %indvars.iv.next, %.lr.ph ]
  %7 = load ptr, ptr %3, align 8
  %8 = getelementptr inbounds i8, ptr %7, i64 8
  %9 = load ptr, ptr %8, align 8
  %10 = getelementptr inbounds ptr, ptr %9, i64 %indvars.iv
  %11 = load ptr, ptr %10, align 8
  %12 = getelementptr inbounds i8, ptr %11, i64 216
  %13 = load ptr, ptr %12, align 8
  %14 = getelementptr inbounds i8, ptr %13, i64 96
  %15 = load ptr, ptr %14, align 8
  tail call void @_ZN10ValueStack25pin_stack_for_linear_scanEv(ptr noundef nonnull align 8 dereferenceable(81) %15) #19
  %indvars.iv.next = add nuw nsw i64 %indvars.iv, 1
  %exitcond.not = icmp eq i64 %indvars.iv.next, %wide.trip.count
  br i1 %exitcond.not, label %._crit_edge.loopexit, label %.lr.ph, !llvm.loop !41

._crit_edge.loopexit:                             ; preds = %.lr.ph
  %.pre = load ptr, ptr %3, align 8
  br label %._crit_edge

._crit_edge:                                      ; preds = %._crit_edge.loopexit, %1
  %16 = phi ptr [ %.pre, %._crit_edge.loopexit ], [ %4, %1 ]
  call void @llvm.lifetime.start.p0(i64 32, ptr nonnull %2)
  %17 = getelementptr inbounds i8, ptr %2, i64 8
  store ptr getelementptr inbounds inrange(-16, 16) (i8, ptr @_ZTV16UseCountComputer, i64 16), ptr %2, align 8
  store ptr getelementptr inbounds inrange(-16, 8) (i8, ptr @_ZTV16UseCountComputer, i64 48), ptr %17, align 8
  %18 = tail call noundef ptr @_Z23resource_allocate_bytesmN17AllocFailStrategy13AllocFailEnumE(i64 noundef 24, i32 noundef 0) #19
  %19 = tail call noundef ptr @_ZN30GrowableArrayResourceAllocator8allocateEii(i32 noundef 2, i32 noundef 8) #19
  store i32 0, ptr %18, align 4
  %20 = getelementptr inbounds i8, ptr %18, i64 4
  store i32 2, ptr %20, align 4
  %21 = getelementptr inbounds i8, ptr %18, i64 8
  store ptr %19, ptr %21, align 8
  tail call void @llvm.memset.p0.i64(ptr noundef nonnull align 8 dereferenceable(16) %19, i8 0, i64 16, i1 false)
  %22 = getelementptr inbounds i8, ptr %18, i64 16
  store i64 0, ptr %22, align 8
  %23 = getelementptr inbounds i8, ptr %2, i64 16
  store ptr %18, ptr %23, align 8
  %24 = getelementptr inbounds i8, ptr %2, i64 24
  store i32 0, ptr %24, align 8
  call void @_ZN9BlockList16iterate_backwardEP12BlockClosure(ptr noundef nonnull align 8 dereferenceable(24) %16, ptr noundef nonnull %17) #19
  call void @llvm.lifetime.end.p0(i64 32, ptr nonnull %2)
  ret void
}